target datalayout = "e-m:e-p270:32:32-p271:32:32-p272:64:64-i64:64-i128:128-f80:128-n8:16:32:64-S128"
target triple = "x86_64-pc-linux-gnu"

%struct._packet_info = type { ptr, ptr, i32, i32, %struct.nstime_t, %struct.nstime_t, %struct.nstime_t, i8, ptr, ptr, ptr, ptr, %struct._address, %struct._address, %struct._address, %struct._address, %struct._address, %struct._address, i32, ptr, i8, [3 x i8], %struct.anon.1, i32, i32, i32, i32, ptr, i8, ptr, ptr, i16, i16, i32, i32, i16, i32, i32, ptr, ptr, ptr, i8, i8, i16, i16, i16, i32, i16, i16, ptr, ptr, ptr, ptr, ptr, i32, i32 }
%struct.nstime_t = type { i64, i32 }
%struct._address = type { i32, i32, ptr, ptr }
%struct.anon.1 = type { i8, [3 x i8] }

@proto_btrfcomm = hidden global i32 0, align 4
@.str.156 = private unnamed_addr constant [37 x i8] c"RFCOMM Channel %d (direction: %u) as\00", align 1
@.str.157 = private unnamed_addr constant [23 x i8] c"Unknown RFCOMM Channel\00", align 1

; Function Attrs: null_pointer_is_valid sspstrong uwtable
define internal void @btrfcomm_directed_channel_prompt(ptr noundef %0, ptr noundef %1) #0 {
  %3 = alloca ptr, align 8
  %4 = alloca ptr, align 8
  %5 = alloca ptr, align 8
  store ptr %0, ptr %3, align 8
  store ptr %1, ptr %4, align 8
  call void @llvm.lifetime.start.p0(i64 8, ptr %5) #7
  %6 = load ptr, ptr %3, align 8
  %7 = getelementptr inbounds nuw %struct._packet_info, ptr %6, i32 0, i32 51
  %8 = load ptr, ptr %7, align 8
  %9 = load ptr, ptr %3, align 8
  %10 = load i32, ptr @proto_btrfcomm, align 4
  %11 = call ptr @p_get_proto_data(ptr noundef %8, ptr noundef %9, i32 noundef %10, i32 noundef 0)
  store ptr %11, ptr %5, align 8
  %12 = load ptr, ptr %5, align 8
  %13 = icmp ne ptr %12, null
  br i1 %13, label %14, label %27

14:                                               ; preds = %2
  %15 = load ptr, ptr %4, align 8
  %16 = load ptr, ptr %4, align 8
  %17 = call i64 @llvm.objectsize.i64.p0(ptr %16, i1 false, i1 true, i1 true)
  %18 = load ptr, ptr %5, align 8
  %19 = load i8, ptr %18, align 1
  %20 = zext i8 %19 to i32
  %21 = lshr i32 %20, 1
  %22 = load ptr, ptr %5, align 8
  %23 = load i8, ptr %22, align 1
  %24 = zext i8 %23 to i32
  %25 = and i32 %24, 1
  %26 = call i32 (ptr, i64, i32, i64, ptr, ...) @__snprintf_chk(ptr noundef %15, i64 noundef 200, i32 noundef 2, i64 noundef %17, ptr noundef @.str.156, i32 noundef %21, i32 noundef %25)
  br label %32

27:                                               ; preds = %2
  %28 = load ptr, ptr %4, align 8
  %29 = load ptr, ptr %4, align 8
  %30 = call i64 @llvm.objectsize.i64.p0(ptr %29, i1 false, i1 true, i1 true)
  %31 = call i32 (ptr, i64, i32, i64, ptr, ...) @__snprintf_chk(ptr noundef %28, i64 noundef 200, i32 noundef 2, i64 noundef %30, ptr noundef @.str.157)
  br label %32

32:                                               ; preds = %27, %14
  call void @llvm.lifetime.end.p0(i64 8, ptr %5) #7
  ret void
}