; Function Attrs: null_pointer_is_valid sspstrong uwtable
define internal void @btrfcomm_directed_channel_prompt(ptr noundef %0, ptr noundef %1) #0 {
  %3 = getelementptr inbounds nuw i8, ptr %0, i64 408
  %4 = load ptr, ptr %3, align 8
  %5 = load i32, ptr @proto_btrfcomm, align 4
  %6 = tail call ptr @p_get_proto_data(ptr noundef %4, ptr noundef %0, i32 noundef %5, i32 noundef 0)
  %.not = icmp eq ptr %6, null
  br i1 %.not, label %13, label %7

7:                                                ; preds = %2
  %8 = load i8, ptr %6, align 1
  %9 = zext i8 %8 to i32
  %10 = lshr i32 %9, 1
  %11 = and i32 %9, 1
  %12 = tail call i32 (ptr, i64, i32, i64, ptr, ...) @__snprintf_chk(ptr noundef %1, i64 noundef 200, i32 noundef 2, i64 noundef -1, ptr noundef nonnull @.str.156, i32 noundef %10, i32 noundef %11)
  br label %15

13:                                               ; preds = %2
  %14 = tail call i32 (ptr, i64, i32, i64, ptr, ...) @__snprintf_chk(ptr noundef %1, i64 noundef 200, i32 noundef 2, i64 noundef -1, ptr noundef nonnull @.str.157)
  br label %15

15:                                               ; preds = %13, %7
  ret void
}